---
triple:          'arm64-apple-darwin'
binary-path:     '/Users/matsushima_nanami/Study/Calc_dev/main'
relocations:
  - { offset: 0xA06F, size: 0x8, addend: 0x0, symName: __ZStL8__ioinit, symObjAddr: 0x42B67, symBinAddr: 0x100014000, symSize: 0x0 }
  - { offset: 0xA87D, size: 0x8, addend: 0x0, symName: __ZSt7forwardIRKNSt7__cxx1112basic_stringIcSt11char_traitsIcESaIcEEEEOT_RNSt16remove_referenceIS8_E4typeE, symObjAddr: 0xF38, symBinAddr: 0x100003794, symSize: 0x14 }
  - { offset: 0xA8AD, size: 0x8, addend: 0x0, symName: __ZSt10_ConstructINSt7__cxx1112basic_stringIcSt11char_traitsIcESaIcEEEJRKS5_EEvPT_DpOT0_, symObjAddr: 0xEBC, symBinAddr: 0x100003718, symSize: 0x7C }
  - { offset: 0xA8F9, size: 0x8, addend: 0x0, symName: __ZNK9__gnu_cxx17__normal_iteratorIPKNSt7__cxx1112basic_stringIcSt11char_traitsIcESaIcEEESt6vectorIS6_SaIS6_EEEdeEv, symObjAddr: 0xEA4, symBinAddr: 0x100003700, symSize: 0x18 }
  - { offset: 0xA921, size: 0x8, addend: 0x0, symName: __ZN9__gnu_cxx17__normal_iteratorIPKNSt7__cxx1112basic_stringIcSt11char_traitsIcESaIcEEESt6vectorIS6_SaIS6_EEEppEv, symObjAddr: 0xE7C, symBinAddr: 0x1000036D8, symSize: 0x28 }
  - { offset: 0xA94B, size: 0x8, addend: 0x0, symName: __ZN9__gnu_cxxneIPKNSt7__cxx1112basic_stringIcSt11char_traitsIcESaIcEEESt6vectorIS6_SaIS6_EEEEbRKNS_17__normal_iteratorIT_T0_EESH_, symObjAddr: 0xE38, symBinAddr: 0x100003694, symSize: 0x44 }
  - { offset: 0xA999, size: 0x8, addend: 0x0, symName: __ZNSt15__new_allocatorINSt7__cxx1112basic_stringIcSt11char_traitsIcESaIcEEEE8allocateEmPKv, symObjAddr: 0xDBC, symBinAddr: 0x100003618, symSize: 0x7C }
  - { offset: 0xAA17, size: 0x8, addend: 0x0, symName: __ZSt16__do_uninit_copyIN9__gnu_cxx17__normal_iteratorIPKNSt7__cxx1112basic_stringIcSt11char_traitsIcESaIcEEESt6vectorIS7_SaIS7_EEEEPS7_ET0_T_SG_SF_, symObjAddr: 0xD14, symBinAddr: 0x100003570, symSize: 0xA8 }
  - { offset: 0xAABA, size: 0x8, addend: 0x0, symName: __ZSt8_DestroyINSt7__cxx1112basic_stringIcSt11char_traitsIcESaIcEEEEvPT_, symObjAddr: 0xCF4, symBinAddr: 0x100003550, symSize: 0x20 }
  - { offset: 0xAAEA, size: 0x8, addend: 0x0, symName: __ZSt11__addressofINSt7__cxx1112basic_stringIcSt11char_traitsIcESaIcEEEEPT_RS6_, symObjAddr: 0xCE0, symBinAddr: 0x10000353C, symSize: 0x14 }
  - { offset: 0xAB1A, size: 0x8, addend: 0x0, symName: __ZNSt20__uninitialized_copyILb0EE13__uninit_copyIN9__gnu_cxx17__normal_iteratorIPKNSt7__cxx1112basic_stringIcSt11char_traitsIcESaIcEEESt6vectorIS9_SaIS9_EEEEPS9_EET0_T_SI_SH_, symObjAddr: 0xCB4, symBinAddr: 0x100003510, symSize: 0x2C }
  - { offset: 0xAB75, size: 0x8, addend: 0x0, symName: __ZNSt12_Vector_baseINSt7__cxx1112basic_stringIcSt11char_traitsIcESaIcEEESaIS5_EE11_M_allocateEm, symObjAddr: 0xC64, symBinAddr: 0x1000034C0, symSize: 0x50 }
  - { offset: 0xABDA, size: 0x8, addend: 0x0, symName: __ZSt4moveIRSaINSt7__cxx1112basic_stringIcSt11char_traitsIcESaIcEEEEEONSt16remove_referenceIT_E4typeEOS9_, symObjAddr: 0xC50, symBinAddr: 0x1000034AC, symSize: 0x14 }
  - { offset: 0xAC0E, size: 0x8, addend: 0x0, symName: __ZNSt12_Vector_baseINSt7__cxx1112basic_stringIcSt11char_traitsIcESaIcEEESaIS5_EE17_Vector_impl_data12_M_copy_dataERKS8_, symObjAddr: 0xC08, symBinAddr: 0x100003464, symSize: 0x48 }
  - { offset: 0xAC6C, size: 0x8, addend: 0x0, symName: __ZNSt12_Vector_baseINSt7__cxx1112basic_stringIcSt11char_traitsIcESaIcEEESaIS5_EEC2ERKS6_, symObjAddr: 0xBE0, symBinAddr: 0x10000343C, symSize: 0x28 }
  - { offset: 0xACB5, size: 0x8, addend: 0x0, symName: __ZNSt12_Destroy_auxILb0EE9__destroyIPNSt7__cxx1112basic_stringIcSt11char_traitsIcESaIcEEEEEvT_S9_, symObjAddr: 0xB94, symBinAddr: 0x1000033F0, symSize: 0x4C }
  - { offset: 0xACF8, size: 0x8, addend: 0x0, symName: __ZNSt15__new_allocatorINSt7__cxx1112basic_stringIcSt11char_traitsIcESaIcEEEE10deallocateEPS5_m, symObjAddr: 0xB64, symBinAddr: 0x1000033C0, symSize: 0x30 }
  - { offset: 0xAD3A, size: 0x8, addend: 0x0, symName: __ZSt18uninitialized_copyIN9__gnu_cxx17__normal_iteratorIPKNSt7__cxx1112basic_stringIcSt11char_traitsIcESaIcEEESt6vectorIS7_SaIS7_EEEEPS7_ET0_T_SG_SF_, symObjAddr: 0xB30, symBinAddr: 0x10000338C, symSize: 0x34 }
  - { offset: 0xADB3, size: 0x8, addend: 0x0, symName: __ZNSt12_Vector_baseINSt7__cxx1112basic_stringIcSt11char_traitsIcESaIcEEESaIS5_EE17_M_create_storageEm, symObjAddr: 0xAD0, symBinAddr: 0x10000332C, symSize: 0x60 }
  - { offset: 0xAE11, size: 0x8, addend: 0x0, symName: __ZNSt12_Vector_baseINSt7__cxx1112basic_stringIcSt11char_traitsIcESaIcEEESaIS5_EE12_Vector_implC1ERKS6_, symObjAddr: 0xA84, symBinAddr: 0x1000032E0, symSize: 0x4C }
  - { offset: 0xAEA5, size: 0x8, addend: 0x0, symName: __ZNK9__gnu_cxx17__normal_iteratorIPKNSt7__cxx1112basic_stringIcSt11char_traitsIcESaIcEEESt6vectorIS6_SaIS6_EEE4baseEv, symObjAddr: 0xA70, symBinAddr: 0x1000032CC, symSize: 0x14 }
  - { offset: 0xAEF4, size: 0x8, addend: 0x0, symName: __ZN9__gnu_cxx17__normal_iteratorIPKNSt7__cxx1112basic_stringIcSt11char_traitsIcESaIcEEESt6vectorIS6_SaIS6_EEEC1ERKS8_, symObjAddr: 0xA48, symBinAddr: 0x1000032A4, symSize: 0x28 }
  - { offset: 0xAF4D, size: 0x8, addend: 0x0, symName: __ZNSt12_Vector_baseINSt7__cxx1112basic_stringIcSt11char_traitsIcESaIcEEESaIS5_EE17_Vector_impl_data12_M_swap_dataERS8_, symObjAddr: 0x9FC, symBinAddr: 0x100003258, symSize: 0x4C }
  - { offset: 0xAFBA, size: 0x8, addend: 0x0, symName: __ZNSt6vectorINSt7__cxx1112basic_stringIcSt11char_traitsIcESaIcEEESaIS5_EEC1ERKS6_, symObjAddr: 0x9D4, symBinAddr: 0x100003230, symSize: 0x28 }
  - { offset: 0xAFE6, size: 0x8, addend: 0x0, symName: __ZNKSt12_Vector_baseINSt7__cxx1112basic_stringIcSt11char_traitsIcESaIcEEESaIS5_EE13get_allocatorEv, symObjAddr: 0x984, symBinAddr: 0x1000031E0, symSize: 0x50 }
  - { offset: 0xB05E, size: 0x8, addend: 0x0, symName: __ZSt8_DestroyIPNSt7__cxx1112basic_stringIcSt11char_traitsIcESaIcEEEEvT_S7_, symObjAddr: 0x95C, symBinAddr: 0x1000031B8, symSize: 0x28 }
  - { offset: 0xB0E3, size: 0x8, addend: 0x0, symName: __ZSt22__uninitialized_copy_aIN9__gnu_cxx17__normal_iteratorIPKNSt7__cxx1112basic_stringIcSt11char_traitsIcESaIcEEESt6vectorIS7_SaIS7_EEEEPS7_S7_ET0_T_SG_SF_RSaIT1_E, symObjAddr: 0x92C, symBinAddr: 0x100003188, symSize: 0x30 }
  - { offset: 0xB187, size: 0x8, addend: 0x0, symName: __ZNSt12_Vector_baseINSt7__cxx1112basic_stringIcSt11char_traitsIcESaIcEEESaIS5_EEC2EmRKS6_, symObjAddr: 0x8D8, symBinAddr: 0x100003134, symSize: 0x54 }
  - { offset: 0xB1D0, size: 0x8, addend: 0x0, symName: __ZNKSt12_Vector_baseINSt7__cxx1112basic_stringIcSt11char_traitsIcESaIcEEESaIS5_EE19_M_get_Tp_allocatorEv, symObjAddr: 0x8C4, symBinAddr: 0x100003120, symSize: 0x14 }
  - { offset: 0xB1F8, size: 0x8, addend: 0x0, symName: __ZNKSt6vectorINSt7__cxx1112basic_stringIcSt11char_traitsIcESaIcEEESaIS5_EE4sizeEv, symObjAddr: 0x89C, symBinAddr: 0x1000030F8, symSize: 0x28 }
  - { offset: 0xB21C, size: 0x8, addend: 0x0, symName: __ZN9__gnu_cxxeqIPKNSt7__cxx1112basic_stringIcSt11char_traitsIcESaIcEEESt6vectorIS6_SaIS6_EEEEbRKNS_17__normal_iteratorIT_T0_EESH_, symObjAddr: 0x858, symBinAddr: 0x1000030B4, symSize: 0x44 }
  - { offset: 0xB26A, size: 0x8, addend: 0x0, symName: __ZNKSt6vectorINSt7__cxx1112basic_stringIcSt11char_traitsIcESaIcEEESaIS5_EE3endEv, symObjAddr: 0x830, symBinAddr: 0x10000308C, symSize: 0x28 }
  - { offset: 0xB292, size: 0x8, addend: 0x0, symName: __ZNKSt6vectorINSt7__cxx1112basic_stringIcSt11char_traitsIcESaIcEEESaIS5_EE5beginEv, symObjAddr: 0x80C, symBinAddr: 0x100003068, symSize: 0x24 }
  - { offset: 0xB2BA, size: 0x8, addend: 0x0, symName: __ZNSt6vectorINSt7__cxx1112basic_stringIcSt11char_traitsIcESaIcEEESaIS5_EE14_M_move_assignEOS7_St17integral_constantIbLb1EE, symObjAddr: 0x778, symBinAddr: 0x100002FD4, symSize: 0x94 }
  - { offset: 0xB35A, size: 0x8, addend: 0x0, symName: __ZSt4moveIRSt6vectorINSt7__cxx1112basic_stringIcSt11char_traitsIcESaIcEEESaIS6_EEEONSt16remove_referenceIT_E4typeEOSB_, symObjAddr: 0x764, symBinAddr: 0x100002FC0, symSize: 0x14 }
  - { offset: 0xB3C9, size: 0x8, addend: 0x0, symName: __ZNSt12_Vector_baseINSt7__cxx1112basic_stringIcSt11char_traitsIcESaIcEEESaIS5_EE19_M_get_Tp_allocatorEv, symObjAddr: 0x750, symBinAddr: 0x100002FAC, symSize: 0x14 }
  - { offset: 0xB3F1, size: 0x8, addend: 0x0, symName: __ZNSt12_Vector_baseINSt7__cxx1112basic_stringIcSt11char_traitsIcESaIcEEESaIS5_EE13_M_deallocateEPS5_m, symObjAddr: 0x6F8, symBinAddr: 0x100002F54, symSize: 0x58 }
  - { offset: 0xB48E, size: 0x8, addend: 0x0, symName: __ZNSt15__new_allocatorINSt7__cxx1112basic_stringIcSt11char_traitsIcESaIcEEEED2Ev, symObjAddr: 0x6E4, symBinAddr: 0x100002F40, symSize: 0x14 }
  - { offset: 0xB4CB, size: 0x8, addend: 0x0, symName: __ZNSt12_Vector_baseINSt7__cxx1112basic_stringIcSt11char_traitsIcESaIcEEESaIS5_EE17_Vector_impl_dataC1Ev, symObjAddr: 0x6B8, symBinAddr: 0x100002F14, symSize: 0x2C }
  - { offset: 0xB4F4, size: 0x8, addend: 0x0, symName: __ZNSt12_Vector_baseINSt7__cxx1112basic_stringIcSt11char_traitsIcESaIcEEESaIS5_EE17_Vector_impl_dataC2Ev, symObjAddr: 0x68C, symBinAddr: 0x100002EE8, symSize: 0x2C }
  - { offset: 0xB553, size: 0x8, addend: 0x0, symName: __ZNSt6vectorINSt7__cxx1112basic_stringIcSt11char_traitsIcESaIcEEESaIS5_EEC1ERKS7_, symObjAddr: 0x578, symBinAddr: 0x100002DD4, symSize: 0x114 }
  - { offset: 0xB65B, size: 0x8, addend: 0x0, symName: __ZNKSt6vectorINSt7__cxx1112basic_stringIcSt11char_traitsIcESaIcEEESaIS5_EE5emptyEv, symObjAddr: 0x540, symBinAddr: 0x100002D9C, symSize: 0x38 }
  - { offset: 0xB683, size: 0x8, addend: 0x0, symName: __ZNSt6vectorINSt7__cxx1112basic_stringIcSt11char_traitsIcESaIcEEESaIS5_EEaSEOS7_, symObjAddr: 0x4FC, symBinAddr: 0x100002D58, symSize: 0x44 }
  - { offset: 0xB6EE, size: 0x8, addend: 0x0, symName: __ZNSt6vectorINSt7__cxx1112basic_stringIcSt11char_traitsIcESaIcEEESaIS5_EED1Ev, symObjAddr: 0x4A0, symBinAddr: 0x100002CFC, symSize: 0x5C }
  - { offset: 0xB767, size: 0x8, addend: 0x0, symName: __ZNSt12_Vector_baseINSt7__cxx1112basic_stringIcSt11char_traitsIcESaIcEEESaIS5_EED2Ev, symObjAddr: 0x450, symBinAddr: 0x100002CAC, symSize: 0x50 }
  - { offset: 0xB7C1, size: 0x8, addend: 0x0, symName: __ZNSt12_Vector_baseINSt7__cxx1112basic_stringIcSt11char_traitsIcESaIcEEESaIS5_EE12_Vector_implC1Ev, symObjAddr: 0x418, symBinAddr: 0x100002C74, symSize: 0x38 }
  - { offset: 0xB82B, size: 0x8, addend: 0x0, symName: _main, symObjAddr: 0xA4, symBinAddr: 0x100002900, symSize: 0x374 }
  - { offset: 0xB8E7, size: 0x8, addend: 0x0, symName: __ZNSt6vectorINSt7__cxx1112basic_stringIcSt11char_traitsIcESaIcEEESaIS5_EEC1Ev, symObjAddr: 0x84, symBinAddr: 0x1000028E0, symSize: 0x20 }
  - { offset: 0xB924, size: 0x8, addend: 0x0, symName: __ZNSt12_Vector_baseINSt7__cxx1112basic_stringIcSt11char_traitsIcESaIcEEESaIS5_EEC2Ev, symObjAddr: 0x64, symBinAddr: 0x1000028C0, symSize: 0x20 }
  - { offset: 0xB96E, size: 0x8, addend: 0x0, symName: __ZNSt12_Vector_baseINSt7__cxx1112basic_stringIcSt11char_traitsIcESaIcEEESaIS5_EE12_Vector_implD1Ev, symObjAddr: 0x38, symBinAddr: 0x100002894, symSize: 0x2C }
  - { offset: 0xB9B0, size: 0x8, addend: 0x0, symName: __ZNSt14numeric_limitsIlE3maxEv, symObjAddr: 0x30, symBinAddr: 0x10000288C, symSize: 0x8 }
  - { offset: 0xB9CF, size: 0x8, addend: 0x0, symName: __ZdlPvS_, symObjAddr: 0x18, symBinAddr: 0x100002874, symSize: 0x18 }
  - { offset: 0xBA03, size: 0x8, addend: 0x0, symName: __ZnwmPv, symObjAddr: 0x0, symBinAddr: 0x10000285C, symSize: 0x18 }
  - { offset: 0x145A2, size: 0x8, addend: 0x0, symName: __Z7isdigiti, symObjAddr: 0x68, symBinAddr: 0x100003860, symSize: 0x20 }
  - { offset: 0x14DA1, size: 0x8, addend: 0x0, symName: __ZStL8__ioinit, symObjAddr: 0x59CFC, symBinAddr: 0x100014001, symSize: 0x0 }
  - { offset: 0x15410, size: 0x8, addend: 0x0, symName: __ZNSt11__copy_moveILb0ELb0ESt26random_access_iterator_tagE12__assign_oneIPdS3_EEvPT_PT0_, symObjAddr: 0x471C, symBinAddr: 0x1000073C0, symSize: 0x28 }
  - { offset: 0x1545A, size: 0x8, addend: 0x0, symName: __ZNSt20__copy_move_backwardILb0ELb1ESt26random_access_iterator_tagE13__copy_move_bIPdS3_EEPT0_PT_S7_S5_, symObjAddr: 0x4670, symBinAddr: 0x100007314, symSize: 0xAC }
  - { offset: 0x154C5, size: 0x8, addend: 0x0, symName: __ZNSt11__copy_moveILb0ELb1ESt26random_access_iterator_tagE8__copy_mIPdS3_EEPT0_PT_S7_S5_, symObjAddr: 0x45E0, symBinAddr: 0x100007284, symSize: 0x90 }
  - { offset: 0x15530, size: 0x8, addend: 0x0, symName: __ZSt23__copy_move_backward_a2ILb0EPPdS1_ET1_T0_S3_S2_, symObjAddr: 0x45B4, symBinAddr: 0x100007258, symSize: 0x2C }
  - { offset: 0x15594, size: 0x8, addend: 0x0, symName: __ZSt14__copy_move_a2ILb0EPPdS1_ET1_T0_S3_S2_, symObjAddr: 0x4588, symBinAddr: 0x10000722C, symSize: 0x2C }
  - { offset: 0x155F8, size: 0x8, addend: 0x0, symName: __ZSt23__copy_move_backward_a1ILb0EPPdS1_ET1_T0_S3_S2_, symObjAddr: 0x455C, symBinAddr: 0x100007200, symSize: 0x2C }
  - { offset: 0x1565C, size: 0x8, addend: 0x0, symName: __ZSt12__niter_wrapIPPdET_RKS2_S2_, symObjAddr: 0x4544, symBinAddr: 0x1000071E8, symSize: 0x18 }
  - { offset: 0x15695, size: 0x8, addend: 0x0, symName: __ZSt14__copy_move_a1ILb0EPPdS1_ET1_T0_S3_S2_, symObjAddr: 0x4518, symBinAddr: 0x1000071BC, symSize: 0x2C }
  - { offset: 0x156F9, size: 0x8, addend: 0x0, symName: __ZSt12__niter_baseIPPdET_S2_, symObjAddr: 0x4504, symBinAddr: 0x1000071A8, symSize: 0x14 }
  - { offset: 0x1572A, size: 0x8, addend: 0x0, symName: __ZSt22__copy_move_backward_aILb0EPPdS1_ET1_T0_S3_S2_, symObjAddr: 0x44A4, symBinAddr: 0x100007148, symSize: 0x60 }
  - { offset: 0x1578E, size: 0x8, addend: 0x0, symName: __ZSt13__copy_move_aILb0EPPdS1_ET1_T0_S3_S2_, symObjAddr: 0x4444, symBinAddr: 0x1000070E8, symSize: 0x60 }
  - { offset: 0x157F2, size: 0x8, addend: 0x0, symName: __ZSt12__miter_baseIPPdET_S2_, symObjAddr: 0x4430, symBinAddr: 0x1000070D4, symSize: 0x14 }
  - { offset: 0x1583D, size: 0x8, addend: 0x0, symName: __ZSt7forwardIRNSt7__cxx1112basic_stringIcSt11char_traitsIcESaIcEEEEOT_RNSt16remove_referenceIS7_E4typeE, symObjAddr: 0x441C, symBinAddr: 0x1000070C0, symSize: 0x14 }
  - { offset: 0x15871, size: 0x8, addend: 0x0, symName: __ZNSt15__new_allocatorIdE8allocateEmPKv, symObjAddr: 0x438C, symBinAddr: 0x100007044, symSize: 0x7C }
  - { offset: 0x158EF, size: 0x8, addend: 0x0, symName: __ZSt13copy_backwardIPPdS1_ET0_T_S3_S2_, symObjAddr: 0x4344, symBinAddr: 0x100006FFC, symSize: 0x48 }
  - { offset: 0x15949, size: 0x8, addend: 0x0, symName: __ZSt4copyIPPdS1_ET0_T_S3_S2_, symObjAddr: 0x42FC, symBinAddr: 0x100006FB4, symSize: 0x48 }
  - { offset: 0x159A9, size: 0x8, addend: 0x0, symName: __ZSt3minImERKT_S2_S2_, symObjAddr: 0x42C4, symBinAddr: 0x100006F7C, symSize: 0x38 }
  - { offset: 0x159FE, size: 0x8, addend: 0x0, symName: __ZSt10_ConstructINSt7__cxx1112basic_stringIcSt11char_traitsIcESaIcEEEJRS5_EEvPT_DpOT0_, symObjAddr: 0x4248, symBinAddr: 0x100006F00, symSize: 0x7C }
  - { offset: 0x15A46, size: 0x8, addend: 0x0, symName: __ZNSt11__copy_moveILb0ELb0ESt26random_access_iterator_tagE8__copy_mIPNSt7__cxx1112basic_stringIcSt11char_traitsIcESaIcEEES9_EET0_T_SB_SA_, symObjAddr: 0x41D4, symBinAddr: 0x100006E8C, symSize: 0x74 }
  - { offset: 0x15AD1, size: 0x8, addend: 0x0, symName: __ZNSt11__copy_moveILb0ELb0ESt26random_access_iterator_tagE8__copy_mIPKNSt7__cxx1112basic_stringIcSt11char_traitsIcESaIcEEEPS8_EET0_T_SD_SC_, symObjAddr: 0x4160, symBinAddr: 0x100006E18, symSize: 0x74 }
  - { offset: 0x15B74, size: 0x8, addend: 0x0, symName: __ZNSt15__new_allocatorIPNSt7__cxx1112basic_stringIcSt11char_traitsIcESaIcEEEE8allocateEmPKv, symObjAddr: 0x3FE4, symBinAddr: 0x100006D9C, symSize: 0x7C }
  - { offset: 0x15C0A, size: 0x8, addend: 0x0, symName: __ZNSt15__new_allocatorIdE10deallocateEPdm, symObjAddr: 0x3FB4, symBinAddr: 0x100006D6C, symSize: 0x30 }
  - { offset: 0x15C50, size: 0x8, addend: 0x0, symName: __ZNSt15__new_allocatorIPdE8allocateEmPKv, symObjAddr: 0x3F38, symBinAddr: 0x100006CF0, symSize: 0x7C }
  - { offset: 0x15D3B, size: 0x8, addend: 0x0, symName: __ZNSt5dequeIdSaIdEE17_M_reallocate_mapEmb, symObjAddr: 0x3CF4, symBinAddr: 0x100006AAC, symSize: 0x244 }
  - { offset: 0x15DE8, size: 0x8, addend: 0x0, symName: __ZNSt5dequeIdSaIdEE11_S_max_sizeERKS0_, symObjAddr: 0x3CA0, symBinAddr: 0x100006A58, symSize: 0x54 }
  - { offset: 0x15E99, size: 0x8, addend: 0x0, symName: __ZSt16__do_uninit_copyIPNSt7__cxx1112basic_stringIcSt11char_traitsIcESaIcEEES6_ET0_T_S8_S7_, symObjAddr: 0x3C0C, symBinAddr: 0x1000069C4, symSize: 0x94 }
  - { offset: 0x15EFF, size: 0x8, addend: 0x0, symName: __ZSt14__copy_move_a2ILb0EPNSt7__cxx1112basic_stringIcSt11char_traitsIcESaIcEEES6_ET1_T0_S8_S7_, symObjAddr: 0x3BE0, symBinAddr: 0x100006998, symSize: 0x2C }
  - { offset: 0x15F67, size: 0x8, addend: 0x0, symName: __ZNK9__gnu_cxx17__normal_iteratorIPNSt7__cxx1112basic_stringIcSt11char_traitsIcESaIcEEESt6vectorIS6_SaIS6_EEEdeEv, symObjAddr: 0x3BC8, symBinAddr: 0x100006980, symSize: 0x18 }
  - { offset: 0x15F8F, size: 0x8, addend: 0x0, symName: __ZN9__gnu_cxx17__normal_iteratorIPNSt7__cxx1112basic_stringIcSt11char_traitsIcESaIcEEESt6vectorIS6_SaIS6_EEEppEv, symObjAddr: 0x3BA0, symBinAddr: 0x100006958, symSize: 0x28 }
  - { offset: 0x15FB9, size: 0x8, addend: 0x0, symName: __ZN9__gnu_cxxneIPNSt7__cxx1112basic_stringIcSt11char_traitsIcESaIcEEESt6vectorIS6_SaIS6_EEEEbRKNS_17__normal_iteratorIT_T0_EESG_, symObjAddr: 0x3B5C, symBinAddr: 0x100006914, symSize: 0x44 }
  - { offset: 0x16007, size: 0x8, addend: 0x0, symName: __ZNK9__gnu_cxx17__normal_iteratorIPNSt7__cxx1112basic_stringIcSt11char_traitsIcESaIcEEESt6vectorIS6_SaIS6_EEEplEl, symObjAddr: 0x3B1C, symBinAddr: 0x1000068D4, symSize: 0x40 }
  - { offset: 0x1603B, size: 0x8, addend: 0x0, symName: __ZSt14__copy_move_a2ILb0EPKNSt7__cxx1112basic_stringIcSt11char_traitsIcESaIcEEEPS5_ET1_T0_SA_S9_, symObjAddr: 0x3AF0, symBinAddr: 0x1000068A8, symSize: 0x2C }
  - { offset: 0x160A3, size: 0x8, addend: 0x0, symName: __ZNK9__gnu_cxx17__normal_iteratorIPNSt7__cxx1112basic_stringIcSt11char_traitsIcESaIcEEESt6vectorIS6_SaIS6_EEE4baseEv, symObjAddr: 0x3ADC, symBinAddr: 0x100006894, symSize: 0x14 }
  - { offset: 0x160CB, size: 0x8, addend: 0x0, symName: __ZNSt15__new_allocatorIPNSt7__cxx1112basic_stringIcSt11char_traitsIcESaIcEEEE10deallocateEPS6_m, symObjAddr: 0x3974, symBinAddr: 0x100006864, symSize: 0x30 }
  - { offset: 0x16133, size: 0x8, addend: 0x0, symName: __ZNSt15__new_allocatorIPNSt7__cxx1112basic_stringIcSt11char_traitsIcESaIcEEEED2Ev, symObjAddr: 0x3960, symBinAddr: 0x100006850, symSize: 0x14 }
  - { offset: 0x16179, size: 0x8, addend: 0x0, symName: __ZNKSt11_Deque_baseINSt7__cxx1112basic_stringIcSt11char_traitsIcESaIcEEESaIS5_EE19_M_get_Tp_allocatorEv, symObjAddr: 0x394C, symBinAddr: 0x10000683C, symSize: 0x14 }
  - { offset: 0x1619E, size: 0x8, addend: 0x0, symName: __ZNSt15_Deque_iteratorINSt7__cxx1112basic_stringIcSt11char_traitsIcESaIcEEERS5_PS5_E14_S_buffer_sizeEv, symObjAddr: 0x3934, symBinAddr: 0x100006824, symSize: 0x18 }
  - { offset: 0x161B9, size: 0x8, addend: 0x0, symName: __ZNSt11_Deque_baseINSt7__cxx1112basic_stringIcSt11char_traitsIcESaIcEEESaIS5_EE16_M_allocate_nodeEv, symObjAddr: 0x38F0, symBinAddr: 0x1000067E0, symSize: 0x44 }
  - { offset: 0x16249, size: 0x8, addend: 0x0, symName: __ZNSt15_Deque_iteratorINSt7__cxx1112basic_stringIcSt11char_traitsIcESaIcEEERS5_PS5_EC1Ev, symObjAddr: 0x38BC, symBinAddr: 0x1000067AC, symSize: 0x34 }
  - { offset: 0x1626D, size: 0x8, addend: 0x0, symName: __ZNSt15__new_allocatorIPdE10deallocateEPS0_m, symObjAddr: 0x388C, symBinAddr: 0x10000677C, symSize: 0x30 }
  - { offset: 0x162D5, size: 0x8, addend: 0x0, symName: __ZNSt15__new_allocatorIPdED2Ev, symObjAddr: 0x3878, symBinAddr: 0x100006768, symSize: 0x14 }
  - { offset: 0x1631B, size: 0x8, addend: 0x0, symName: __ZNKSt11_Deque_baseIdSaIdEE19_M_get_Tp_allocatorEv, symObjAddr: 0x3864, symBinAddr: 0x100006754, symSize: 0x14 }
  - { offset: 0x163B2, size: 0x8, addend: 0x0, symName: __ZNSt15_Deque_iteratorIdRdPdEC1Ev, symObjAddr: 0x3830, symBinAddr: 0x100006720, symSize: 0x34 }
  - { offset: 0x163EA, size: 0x8, addend: 0x0, symName: __ZNSt5dequeIdSaIdEE16_M_push_back_auxIJdEEEvDpOT_, symObjAddr: 0x36DC, symBinAddr: 0x100006600, symSize: 0x120 }
  - { offset: 0x164D8, size: 0x8, addend: 0x0, symName: __ZSt7forwardIdEOT_RNSt16remove_referenceIS0_E4typeE, symObjAddr: 0x36C8, symBinAddr: 0x1000065EC, symSize: 0x14 }
  - { offset: 0x1650C, size: 0x8, addend: 0x0, symName: __ZNSt11_Deque_baseIdSaIdEE16_M_allocate_nodeEv, symObjAddr: 0x3684, symBinAddr: 0x1000065A8, symSize: 0x44 }
  - { offset: 0x1655F, size: 0x8, addend: 0x0, symName: __ZNSt5dequeIdSaIdEE22_M_reserve_map_at_backEm, symObjAddr: 0x3624, symBinAddr: 0x100006548, symSize: 0x60 }
  - { offset: 0x16597, size: 0x8, addend: 0x0, symName: __ZNKSt5dequeIdSaIdEE8max_sizeEv, symObjAddr: 0x3604, symBinAddr: 0x100006528, symSize: 0x20 }
  - { offset: 0x16600, size: 0x8, addend: 0x0, symName: __ZSt7forwardIRKdEOT_RNSt16remove_referenceIS2_E4typeE, symObjAddr: 0x35F0, symBinAddr: 0x100006514, symSize: 0x14 }
  - { offset: 0x1665B, size: 0x8, addend: 0x0, symName: __ZNSt15_Deque_iteratorIdRdPdE14_S_buffer_sizeEv, symObjAddr: 0x35D8, symBinAddr: 0x1000064FC, symSize: 0x18 }
  - { offset: 0x16672, size: 0x8, addend: 0x0, symName: __ZNSt20__uninitialized_copyILb0EE13__uninit_copyIPNSt7__cxx1112basic_stringIcSt11char_traitsIcESaIcEEES8_EET0_T_SA_S9_, symObjAddr: 0x3528, symBinAddr: 0x1000064D0, symSize: 0x2C }
  - { offset: 0x166C9, size: 0x8, addend: 0x0, symName: __ZSt12__niter_wrapIPNSt7__cxx1112basic_stringIcSt11char_traitsIcESaIcEEEET_RKS7_S7_, symObjAddr: 0x3510, symBinAddr: 0x1000064B8, symSize: 0x18 }
  - { offset: 0x16702, size: 0x8, addend: 0x0, symName: __ZSt14__copy_move_a1ILb0EPNSt7__cxx1112basic_stringIcSt11char_traitsIcESaIcEEES6_ET1_T0_S8_S7_, symObjAddr: 0x34E4, symBinAddr: 0x10000648C, symSize: 0x2C }
  - { offset: 0x16766, size: 0x8, addend: 0x0, symName: __ZSt12__niter_baseIPNSt7__cxx1112basic_stringIcSt11char_traitsIcESaIcEEEET_S7_, symObjAddr: 0x34D0, symBinAddr: 0x100006478, symSize: 0x14 }
  - { offset: 0x16797, size: 0x8, addend: 0x0, symName: __ZNSt12_Destroy_auxILb0EE9__destroyIN9__gnu_cxx17__normal_iteratorIPNSt7__cxx1112basic_stringIcSt11char_traitsIcESaIcEEESt6vectorIS9_SaIS9_EEEEEEvT_SF_, symObjAddr: 0x347C, symBinAddr: 0x100006424, symSize: 0x54 }
  - { offset: 0x167D6, size: 0x8, addend: 0x0, symName: __ZSt12__niter_wrapIN9__gnu_cxx17__normal_iteratorIPNSt7__cxx1112basic_stringIcSt11char_traitsIcESaIcEEESt6vectorIS7_SaIS7_EEEES8_ET_SD_T0_, symObjAddr: 0x3434, symBinAddr: 0x1000063DC, symSize: 0x48 }
  - { offset: 0x16820, size: 0x8, addend: 0x0, symName: __ZSt14__copy_move_a1ILb0EPKNSt7__cxx1112basic_stringIcSt11char_traitsIcESaIcEEEPS5_ET1_T0_SA_S9_, symObjAddr: 0x3408, symBinAddr: 0x1000063B0, symSize: 0x2C }
  - { offset: 0x16884, size: 0x8, addend: 0x0, symName: __ZSt12__niter_baseIPNSt7__cxx1112basic_stringIcSt11char_traitsIcESaIcEEESt6vectorIS5_SaIS5_EEET_N9__gnu_cxx17__normal_iteratorISA_T0_EE, symObjAddr: 0x33E8, symBinAddr: 0x100006390, symSize: 0x20 }
  - { offset: 0x168BE, size: 0x8, addend: 0x0, symName: __ZSt12__niter_baseIPKNSt7__cxx1112basic_stringIcSt11char_traitsIcESaIcEEESt6vectorIS5_SaIS5_EEET_N9__gnu_cxx17__normal_iteratorISB_T0_EE, symObjAddr: 0x33C8, symBinAddr: 0x100006370, symSize: 0x20 }
  - { offset: 0x1691D, size: 0x8, addend: 0x0, symName: __ZNSt5dequeINSt7__cxx1112basic_stringIcSt11char_traitsIcESaIcEEESaIS5_EE14_S_buffer_sizeEv, symObjAddr: 0x3384, symBinAddr: 0x100006358, symSize: 0x18 }
  - { offset: 0x16987, size: 0x8, addend: 0x0, symName: __ZNKSt11_Deque_baseINSt7__cxx1112basic_stringIcSt11char_traitsIcESaIcEEESaIS5_EE20_M_get_map_allocatorEv, symObjAddr: 0x333C, symBinAddr: 0x100006310, symSize: 0x48 }
  - { offset: 0x169FB, size: 0x8, addend: 0x0, symName: __ZNSt11_Deque_baseINSt7__cxx1112basic_stringIcSt11char_traitsIcESaIcEEESaIS5_EE18_M_deallocate_nodeEPS5_, symObjAddr: 0x32E4, symBinAddr: 0x1000062B8, symSize: 0x58 }
  - { offset: 0x16A66, size: 0x8, addend: 0x0, symName: __ZNSt15_Deque_iteratorINSt7__cxx1112basic_stringIcSt11char_traitsIcESaIcEEERS5_PS5_E11_M_set_nodeEPS7_, symObjAddr: 0x3288, symBinAddr: 0x10000625C, symSize: 0x5C }
  - { offset: 0x16A9E, size: 0x8, addend: 0x0, symName: __ZNSt11_Deque_baseINSt7__cxx1112basic_stringIcSt11char_traitsIcESaIcEEESaIS5_EE15_M_create_nodesEPPS5_S9_, symObjAddr: 0x31FC, symBinAddr: 0x1000061D0, symSize: 0x8C }
  - { offset: 0x16AF7, size: 0x8, addend: 0x0, symName: __ZNSt11_Deque_baseINSt7__cxx1112basic_stringIcSt11char_traitsIcESaIcEEESaIS5_EE15_M_allocate_mapEm, symObjAddr: 0x317C, symBinAddr: 0x100006150, symSize: 0x80 }
  - { offset: 0x16BC4, size: 0x8, addend: 0x0, symName: __ZNSt11_Deque_baseINSt7__cxx1112basic_stringIcSt11char_traitsIcESaIcEEESaIS5_EE16_Deque_impl_dataC2Ev, symObjAddr: 0x313C, symBinAddr: 0x100006110, symSize: 0x40 }
  - { offset: 0x16C37, size: 0x8, addend: 0x0, symName: __ZNKSt11_Deque_baseIdSaIdEE20_M_get_map_allocatorEv, symObjAddr: 0x30F4, symBinAddr: 0x1000060C8, symSize: 0x48 }
  - { offset: 0x16CAB, size: 0x8, addend: 0x0, symName: __ZNSt11_Deque_baseIdSaIdEE18_M_deallocate_nodeEPd, symObjAddr: 0x309C, symBinAddr: 0x100006070, symSize: 0x58 }
  - { offset: 0x16D16, size: 0x8, addend: 0x0, symName: __ZNSt15_Deque_iteratorIdRdPdE11_M_set_nodeEPS1_, symObjAddr: 0x3040, symBinAddr: 0x100006014, symSize: 0x5C }
  - { offset: 0x16D4E, size: 0x8, addend: 0x0, symName: __ZNSt11_Deque_baseIdSaIdEE15_M_create_nodesEPPdS3_, symObjAddr: 0x2FB4, symBinAddr: 0x100005F88, symSize: 0x8C }
  - { offset: 0x16DA7, size: 0x8, addend: 0x0, symName: __ZNSt11_Deque_baseIdSaIdEE15_M_allocate_mapEm, symObjAddr: 0x2F34, symBinAddr: 0x100005F08, symSize: 0x80 }
  - { offset: 0x16E57, size: 0x8, addend: 0x0, symName: __ZSt3maxImERKT_S2_S2_, symObjAddr: 0x2EFC, symBinAddr: 0x100005ED0, symSize: 0x38 }
  - { offset: 0x16EBE, size: 0x8, addend: 0x0, symName: __ZNSt15__new_allocatorIdED2Ev, symObjAddr: 0x2EE8, symBinAddr: 0x100005EBC, symSize: 0x14 }
  - { offset: 0x16EFB, size: 0x8, addend: 0x0, symName: __ZNSt11_Deque_baseIdSaIdEE16_Deque_impl_dataC2Ev, symObjAddr: 0x2EA8, symBinAddr: 0x100005E7C, symSize: 0x40 }
  - { offset: 0x16F33, size: 0x8, addend: 0x0, symName: __ZNSt5dequeIdSaIdEE12emplace_backIJdEEERdDpOT_, symObjAddr: 0x2D50, symBinAddr: 0x100005DA0, symSize: 0xDC }
  - { offset: 0x16FD7, size: 0x8, addend: 0x0, symName: __ZNSt5dequeIdSaIdEE16_M_push_back_auxIJRKdEEEvDpOT_, symObjAddr: 0x2C30, symBinAddr: 0x100005C80, symSize: 0x120 }
  - { offset: 0x170C3, size: 0x8, addend: 0x0, symName: __ZNSt5dequeIdSaIdEE15_M_pop_back_auxEv, symObjAddr: 0x2B98, symBinAddr: 0x100005BE8, symSize: 0x98 }
  - { offset: 0x1716E, size: 0x8, addend: 0x0, symName: __ZNKSt15_Deque_iteratorIdRdPdEdeEv, symObjAddr: 0x2B80, symBinAddr: 0x100005BD0, symSize: 0x18 }
  - { offset: 0x17196, size: 0x8, addend: 0x0, symName: __ZNSt15_Deque_iteratorIdRdPdEmmEv, symObjAddr: 0x2B14, symBinAddr: 0x100005B64, symSize: 0x6C }
  - { offset: 0x171C0, size: 0x8, addend: 0x0, symName: __ZStmiRKSt15_Deque_iteratorIdRdPdES4_, symObjAddr: 0x2A80, symBinAddr: 0x100005AD0, symSize: 0x94 }
  - { offset: 0x171F8, size: 0x8, addend: 0x0, symName: __ZSt18uninitialized_copyIPNSt7__cxx1112basic_stringIcSt11char_traitsIcESaIcEEES6_ET0_T_S8_S7_, symObjAddr: 0x2988, symBinAddr: 0x100005A9C, symSize: 0x34 }
  - { offset: 0x1726D, size: 0x8, addend: 0x0, symName: __ZSt13__copy_move_aILb0EPNSt7__cxx1112basic_stringIcSt11char_traitsIcESaIcEEES6_ET1_T0_S8_S7_, symObjAddr: 0x2928, symBinAddr: 0x100005A3C, symSize: 0x60 }
  - { offset: 0x172D1, size: 0x8, addend: 0x0, symName: __ZSt12__miter_baseIPNSt7__cxx1112basic_stringIcSt11char_traitsIcESaIcEEEET_S7_, symObjAddr: 0x2914, symBinAddr: 0x100005A28, symSize: 0x14 }
  - { offset: 0x17302, size: 0x8, addend: 0x0, symName: __ZSt8_DestroyIN9__gnu_cxx17__normal_iteratorIPNSt7__cxx1112basic_stringIcSt11char_traitsIcESaIcEEESt6vectorIS7_SaIS7_EEEEEvT_SD_, symObjAddr: 0x28EC, symBinAddr: 0x100005A00, symSize: 0x28 }
  - { offset: 0x17341, size: 0x8, addend: 0x0, symName: __ZSt13__copy_move_aILb0EN9__gnu_cxx17__normal_iteratorIPKNSt7__cxx1112basic_stringIcSt11char_traitsIcESaIcEEESt6vectorIS7_SaIS7_EEEENS1_IPS7_SC_EEET1_T0_SH_SG_, symObjAddr: 0x288C, symBinAddr: 0x1000059A0, symSize: 0x60 }
  - { offset: 0x173A5, size: 0x8, addend: 0x0, symName: __ZSt12__miter_baseIN9__gnu_cxx17__normal_iteratorIPKNSt7__cxx1112basic_stringIcSt11char_traitsIcESaIcEEESt6vectorIS7_SaIS7_EEEEET_SE_, symObjAddr: 0x2878, symBinAddr: 0x10000598C, symSize: 0x14 }
  - { offset: 0x17401, size: 0x8, addend: 0x0, symName: __ZN9__gnu_cxx17__normal_iteratorIPNSt7__cxx1112basic_stringIcSt11char_traitsIcESaIcEEESt6vectorIS6_SaIS6_EEEC1ERKS7_, symObjAddr: 0x2850, symBinAddr: 0x100005964, symSize: 0x28 }
  - { offset: 0x1742D, size: 0x8, addend: 0x0, symName: __ZNSt6vectorINSt7__cxx1112basic_stringIcSt11char_traitsIcESaIcEEESaIS5_EE15_M_erase_at_endEPS5_, symObjAddr: 0x2778, symBinAddr: 0x1000058DC, symSize: 0x88 }
  - { offset: 0x174BC, size: 0x8, addend: 0x0, symName: __ZNSt5dequeINSt7__cxx1112basic_stringIcSt11char_traitsIcESaIcEEESaIS5_EE19_M_destroy_data_auxESt15_Deque_iteratorIS5_RS5_PS5_ESB_, symObjAddr: 0x2520, symBinAddr: 0x10000578C, symSize: 0x150 }
  - { offset: 0x17624, size: 0x8, addend: 0x0, symName: __ZNSt15_Deque_iteratorINSt7__cxx1112basic_stringIcSt11char_traitsIcESaIcEEERS5_PS5_EC1ERKS8_, symObjAddr: 0x24C8, symBinAddr: 0x100005734, symSize: 0x58 }
  - { offset: 0x17650, size: 0x8, addend: 0x0, symName: __ZNSt11_Deque_baseINSt7__cxx1112basic_stringIcSt11char_traitsIcESaIcEEESaIS5_EE17_M_deallocate_mapEPPS5_m, symObjAddr: 0x2468, symBinAddr: 0x1000056D4, symSize: 0x60 }
  - { offset: 0x176FB, size: 0x8, addend: 0x0, symName: __ZNSt11_Deque_baseINSt7__cxx1112basic_stringIcSt11char_traitsIcESaIcEEESaIS5_EE16_M_destroy_nodesEPPS5_S9_, symObjAddr: 0x2408, symBinAddr: 0x100005674, symSize: 0x60 }
  - { offset: 0x17767, size: 0x8, addend: 0x0, symName: __ZNSt11_Deque_baseINSt7__cxx1112basic_stringIcSt11char_traitsIcESaIcEEESaIS5_EE17_M_initialize_mapEm, symObjAddr: 0x227C, symBinAddr: 0x1000054E8, symSize: 0x18C }
  - { offset: 0x177EB, size: 0x8, addend: 0x0, symName: __ZNSt11_Deque_baseINSt7__cxx1112basic_stringIcSt11char_traitsIcESaIcEEESaIS5_EE11_Deque_implC1Ev, symObjAddr: 0x2244, symBinAddr: 0x1000054B0, symSize: 0x38 }
  - { offset: 0x17879, size: 0x8, addend: 0x0, symName: __ZNSt15_Deque_iteratorIdRdPdEC1ERKS2_, symObjAddr: 0x21EC, symBinAddr: 0x100005458, symSize: 0x58 }
  - { offset: 0x178A5, size: 0x8, addend: 0x0, symName: __ZNSt11_Deque_baseIdSaIdEE17_M_deallocate_mapEPPdm, symObjAddr: 0x218C, symBinAddr: 0x1000053F8, symSize: 0x60 }
  - { offset: 0x17950, size: 0x8, addend: 0x0, symName: __ZNSt11_Deque_baseIdSaIdEE16_M_destroy_nodesEPPdS3_, symObjAddr: 0x212C, symBinAddr: 0x100005398, symSize: 0x60 }
  - { offset: 0x179BC, size: 0x8, addend: 0x0, symName: __ZNSt11_Deque_baseIdSaIdEE17_M_initialize_mapEm, symObjAddr: 0x1FA0, symBinAddr: 0x10000520C, symSize: 0x18C }
  - { offset: 0x17A5D, size: 0x8, addend: 0x0, symName: __ZNSt11_Deque_baseIdSaIdEE11_Deque_implC1Ev, symObjAddr: 0x1F68, symBinAddr: 0x1000051D4, symSize: 0x38 }
  - { offset: 0x17B0B, size: 0x8, addend: 0x0, symName: __ZNSt5dequeIdSaIdEE9push_backEOd, symObjAddr: 0x1F10, symBinAddr: 0x1000051A4, symSize: 0x30 }
  - { offset: 0x17B45, size: 0x8, addend: 0x0, symName: __ZSt4moveIRdEONSt16remove_referenceIT_E4typeEOS2_, symObjAddr: 0x1EFC, symBinAddr: 0x100005190, symSize: 0x14 }
  - { offset: 0x17B79, size: 0x8, addend: 0x0, symName: __ZNSt5dequeIdSaIdEE9push_backERKd, symObjAddr: 0x1E30, symBinAddr: 0x1000050C4, symSize: 0xCC }
  - { offset: 0x17C17, size: 0x8, addend: 0x0, symName: __ZNSt5dequeIdSaIdEE8pop_backEv, symObjAddr: 0x1DAC, symBinAddr: 0x100005040, symSize: 0x84 }
  - { offset: 0x17C95, size: 0x8, addend: 0x0, symName: __ZNSt5dequeIdSaIdEE4backEv, symObjAddr: 0x1D78, symBinAddr: 0x10000500C, symSize: 0x34 }
  - { offset: 0x17CCE, size: 0x8, addend: 0x0, symName: __ZNKSt5dequeIdSaIdEE4sizeEv, symObjAddr: 0x1D48, symBinAddr: 0x100004FDC, symSize: 0x30 }
  - { offset: 0x17CF2, size: 0x8, addend: 0x0, symName: __ZSt22__uninitialized_copy_aIPNSt7__cxx1112basic_stringIcSt11char_traitsIcESaIcEEES6_S5_ET0_T_S8_S7_RSaIT1_E, symObjAddr: 0x1C70, symBinAddr: 0x100004FAC, symSize: 0x30 }
  - { offset: 0x17D5D, size: 0x8, addend: 0x0, symName: __ZSt4copyIPNSt7__cxx1112basic_stringIcSt11char_traitsIcESaIcEEES6_ET0_T_S8_S7_, symObjAddr: 0x1C28, symBinAddr: 0x100004F64, symSize: 0x48 }
  - { offset: 0x17DF6, size: 0x8, addend: 0x0, symName: __ZNSt6vectorINSt7__cxx1112basic_stringIcSt11char_traitsIcESaIcEEESaIS5_EE3endEv, symObjAddr: 0x1C00, symBinAddr: 0x100004F3C, symSize: 0x28 }
  - { offset: 0x17E1A, size: 0x8, addend: 0x0, symName: __ZSt4copyIN9__gnu_cxx17__normal_iteratorIPKNSt7__cxx1112basic_stringIcSt11char_traitsIcESaIcEEESt6vectorIS7_SaIS7_EEEENS1_IPS7_SC_EEET0_T_SH_SG_, symObjAddr: 0x1BB8, symBinAddr: 0x100004EF4, symSize: 0x48 }
  - { offset: 0x17E78, size: 0x8, addend: 0x0, symName: __ZNSt6vectorINSt7__cxx1112basic_stringIcSt11char_traitsIcESaIcEEESaIS5_EE5beginEv, symObjAddr: 0x1B94, symBinAddr: 0x100004ED0, symSize: 0x24 }
  - { offset: 0x17EA0, size: 0x8, addend: 0x0, symName: __ZNSt6vectorINSt7__cxx1112basic_stringIcSt11char_traitsIcESaIcEEESaIS5_EE20_M_allocate_and_copyIN9__gnu_cxx17__normal_iteratorIPKS5_S7_EEEEPS5_mT_SF_, symObjAddr: 0x1B10, symBinAddr: 0x100004E4C, symSize: 0x84 }
  - { offset: 0x17F12, size: 0x8, addend: 0x0, symName: __ZNKSt6vectorINSt7__cxx1112basic_stringIcSt11char_traitsIcESaIcEEESaIS5_EE8capacityEv, symObjAddr: 0x1AE8, symBinAddr: 0x100004E24, symSize: 0x28 }
  - { offset: 0x17F67, size: 0x8, addend: 0x0, symName: __ZNSt6vectorINSt7__cxx1112basic_stringIcSt11char_traitsIcESaIcEEESaIS5_EE5clearEv, symObjAddr: 0x1ABC, symBinAddr: 0x100004DF8, symSize: 0x2C }
  - { offset: 0x17FA1, size: 0x8, addend: 0x0, symName: __ZNSt5dequeINSt7__cxx1112basic_stringIcSt11char_traitsIcESaIcEEESaIS5_EE15_M_destroy_dataESt15_Deque_iteratorIS5_RS5_PS5_ESB_RKS6_, symObjAddr: 0x1984, symBinAddr: 0x100004DA4, symSize: 0x54 }
  - { offset: 0x17FF7, size: 0x8, addend: 0x0, symName: __ZNSt11_Deque_baseINSt7__cxx1112basic_stringIcSt11char_traitsIcESaIcEEESaIS5_EE19_M_get_Tp_allocatorEv, symObjAddr: 0x1970, symBinAddr: 0x100004D90, symSize: 0x14 }
  - { offset: 0x1801F, size: 0x8, addend: 0x0, symName: __ZNSt5dequeINSt7__cxx1112basic_stringIcSt11char_traitsIcESaIcEEESaIS5_EE3endEv, symObjAddr: 0x1938, symBinAddr: 0x100004D58, symSize: 0x38 }
  - { offset: 0x18047, size: 0x8, addend: 0x0, symName: __ZNSt5dequeINSt7__cxx1112basic_stringIcSt11char_traitsIcESaIcEEESaIS5_EE5beginEv, symObjAddr: 0x1900, symBinAddr: 0x100004D20, symSize: 0x38 }
  - { offset: 0x18091, size: 0x8, addend: 0x0, symName: __ZNSt11_Deque_baseINSt7__cxx1112basic_stringIcSt11char_traitsIcESaIcEEESaIS5_EED2Ev, symObjAddr: 0x1894, symBinAddr: 0x100004CB4, symSize: 0x6C }
  - { offset: 0x180CE, size: 0x8, addend: 0x0, symName: __ZNSt11_Deque_baseINSt7__cxx1112basic_stringIcSt11char_traitsIcESaIcEEESaIS5_EEC2Ev, symObjAddr: 0x184C, symBinAddr: 0x100004C6C, symSize: 0x48 }
  - { offset: 0x18119, size: 0x8, addend: 0x0, symName: __ZNSt11_Deque_baseINSt7__cxx1112basic_stringIcSt11char_traitsIcESaIcEEESaIS5_EE11_Deque_implD1Ev, symObjAddr: 0x1820, symBinAddr: 0x100004C40, symSize: 0x2C }
  - { offset: 0x18160, size: 0x8, addend: 0x0, symName: __ZNSt5dequeIdSaIdEE15_M_destroy_dataESt15_Deque_iteratorIdRdPdES5_RKS0_, symObjAddr: 0x1800, symBinAddr: 0x100004C20, symSize: 0x20 }
  - { offset: 0x181B6, size: 0x8, addend: 0x0, symName: __ZNSt11_Deque_baseIdSaIdEE19_M_get_Tp_allocatorEv, symObjAddr: 0x17EC, symBinAddr: 0x100004C0C, symSize: 0x14 }
  - { offset: 0x181DE, size: 0x8, addend: 0x0, symName: __ZNSt5dequeIdSaIdEE3endEv, symObjAddr: 0x17B4, symBinAddr: 0x100004BD4, symSize: 0x38 }
  - { offset: 0x18206, size: 0x8, addend: 0x0, symName: __ZNSt5dequeIdSaIdEE5beginEv, symObjAddr: 0x177C, symBinAddr: 0x100004B9C, symSize: 0x38 }
  - { offset: 0x18250, size: 0x8, addend: 0x0, symName: __ZNSt11_Deque_baseIdSaIdEED2Ev, symObjAddr: 0x1710, symBinAddr: 0x100004B30, symSize: 0x6C }
  - { offset: 0x1828D, size: 0x8, addend: 0x0, symName: __ZNSt11_Deque_baseIdSaIdEEC2Ev, symObjAddr: 0x16C8, symBinAddr: 0x100004AE8, symSize: 0x48 }
  - { offset: 0x182D8, size: 0x8, addend: 0x0, symName: __ZNSt11_Deque_baseIdSaIdEE11_Deque_implD1Ev, symObjAddr: 0x169C, symBinAddr: 0x100004ABC, symSize: 0x2C }
  - { offset: 0x1836A, size: 0x8, addend: 0x0, symName: __ZN9__gnu_cxx11char_traitsIcE2eqERKcS3_, symObjAddr: 0x1594, symBinAddr: 0x100004A8C, symSize: 0x30 }
  - { offset: 0x183A4, size: 0x8, addend: 0x0, symName: __ZNSt5stackIdSt5dequeIdSaIdEEE4pushEOd, symObjAddr: 0x1558, symBinAddr: 0x100004A50, symSize: 0x3C }
  - { offset: 0x183DC, size: 0x8, addend: 0x0, symName: __ZNSt5stackIdSt5dequeIdSaIdEEE4pushERKd, symObjAddr: 0x1530, symBinAddr: 0x100004A28, symSize: 0x28 }
  - { offset: 0x18410, size: 0x8, addend: 0x0, symName: __ZSteqIcSt11char_traitsIcESaIcEEbRKNSt7__cxx1112basic_stringIT_T0_T1_EEPKS5_, symObjAddr: 0x14BC, symBinAddr: 0x1000049B4, symSize: 0x74 }
  - { offset: 0x18467, size: 0x8, addend: 0x0, symName: __ZNSt5stackIdSt5dequeIdSaIdEEE3popEv, symObjAddr: 0x149C, symBinAddr: 0x100004994, symSize: 0x20 }
  - { offset: 0x1848F, size: 0x8, addend: 0x0, symName: __ZNSt5stackIdSt5dequeIdSaIdEEE3topEv, symObjAddr: 0x1480, symBinAddr: 0x100004978, symSize: 0x1C }
  - { offset: 0x184B7, size: 0x8, addend: 0x0, symName: __ZNKSt5stackIdSt5dequeIdSaIdEEE4sizeEv, symObjAddr: 0x1464, symBinAddr: 0x10000495C, symSize: 0x1C }
  - { offset: 0x184DF, size: 0x8, addend: 0x0, symName: __ZNSt6vectorINSt7__cxx1112basic_stringIcSt11char_traitsIcESaIcEEESaIS5_EEixEm, symObjAddr: 0x143C, symBinAddr: 0x100004934, symSize: 0x28 }
  - { offset: 0x18517, size: 0x8, addend: 0x0, symName: __ZNSt6vectorINSt7__cxx1112basic_stringIcSt11char_traitsIcESaIcEEESaIS5_EEaSERKS7_, symObjAddr: 0x1088, symBinAddr: 0x1000045EC, symSize: 0x348 }
  - { offset: 0x18681, size: 0x8, addend: 0x0, symName: __ZSt11__addressofIKSt6vectorINSt7__cxx1112basic_stringIcSt11char_traitsIcESaIcEEESaIS6_EEEPT_RSA_, symObjAddr: 0x1074, symBinAddr: 0x1000045D8, symSize: 0x14 }
  - { offset: 0x186D7, size: 0x8, addend: 0x0, symName: __ZNSt5dequeINSt7__cxx1112basic_stringIcSt11char_traitsIcESaIcEEESaIS5_EED1Ev, symObjAddr: 0xEF8, symBinAddr: 0x100004570, symSize: 0x68 }
  - { offset: 0x18724, size: 0x8, addend: 0x0, symName: __ZNSt5queueINSt7__cxx1112basic_stringIcSt11char_traitsIcESaIcEEESt5dequeIS5_SaIS5_EEEC1IS8_vEEv, symObjAddr: 0xEBC, symBinAddr: 0x100004534, symSize: 0x3C }
  - { offset: 0x18770, size: 0x8, addend: 0x0, symName: __ZNSt5dequeINSt7__cxx1112basic_stringIcSt11char_traitsIcESaIcEEESaIS5_EEC1Ev, symObjAddr: 0xE9C, symBinAddr: 0x100004514, symSize: 0x20 }
  - { offset: 0x187B6, size: 0x8, addend: 0x0, symName: __ZNSt5dequeIdSaIdEED1Ev, symObjAddr: 0xE34, symBinAddr: 0x1000044AC, symSize: 0x68 }
  - { offset: 0x18803, size: 0x8, addend: 0x0, symName: __ZNSt5stackIdSt5dequeIdSaIdEEEC1IS2_vEEv, symObjAddr: 0xDF8, symBinAddr: 0x100004470, symSize: 0x3C }
  - { offset: 0x1884F, size: 0x8, addend: 0x0, symName: __ZNSt5dequeIdSaIdEEC1Ev, symObjAddr: 0xDD8, symBinAddr: 0x100004450, symSize: 0x20 }
  - { offset: 0x188AD, size: 0x8, addend: 0x0, symName: __ZN9__gnu_cxx6__stoaIlicJiEEET0_PFT_PKT1_PPS3_DpT2_EPKcS5_PmS9_, symObjAddr: 0xBF0, symBinAddr: 0x10000434C, symSize: 0x104 }
  - { offset: 0x189E0, size: 0x8, addend: 0x0, symName: __ZZN9__gnu_cxx6__stoaIlicJiEEET0_PFT_PKT1_PPS3_DpT2_EPKcS5_PmS9_EN11_Save_errnoC1Ev, symObjAddr: 0xB30, symBinAddr: 0x10000428C, symSize: 0x30 }
  - { offset: 0x18A09, size: 0x8, addend: 0x0, symName: __ZZN9__gnu_cxx6__stoaIlicJiEEET0_PFT_PKT1_PPS3_DpT2_EPKcS5_PmS9_EN11_Save_errnoD1Ev, symObjAddr: 0xB60, symBinAddr: 0x1000042BC, symSize: 0x50 }
  - { offset: 0x18A69, size: 0x8, addend: 0x0, symName: __ZZN9__gnu_cxx6__stoaIlicJiEEET0_PFT_PKT1_PPS3_DpT2_EPKcS5_PmS9_EN10_Range_chk6_S_chkElSt17integral_constantIbLb1EE, symObjAddr: 0xBB0, symBinAddr: 0x10000430C, symSize: 0x40 }
  - { offset: 0x18AA9, size: 0x8, addend: 0x0, symName: __ZN9__gnu_cxx11char_traitsIcE6lengthEPKc, symObjAddr: 0xAD8, symBinAddr: 0x100004234, symSize: 0x58 }
  - { offset: 0x18AE7, size: 0x8, addend: 0x0, symName: __ZN4Calc10isOperatorERKNSt7__cxx1112basic_stringIcSt11char_traitsIcESaIcEEE, symObjAddr: 0xA44, symBinAddr: 0x1000041A0, symSize: 0x94 }
  - { offset: 0x18B22, size: 0x8, addend: 0x0, symName: __ZN4Calc8TryParseERKNSt7__cxx1112basic_stringIcSt11char_traitsIcESaIcEEE, symObjAddr: 0x9A4, symBinAddr: 0x100004100, symSize: 0xA0 }
  - { offset: 0x18B8E, size: 0x8, addend: 0x0, symName: __ZN4Calc11CalculationEv, symObjAddr: 0x588, symBinAddr: 0x100003CE4, symSize: 0x41C }
  - { offset: 0x18BE3, size: 0x8, addend: 0x0, symName: __ZN4Calc13set_revpolishESt6vectorINSt7__cxx1112basic_stringIcSt11char_traitsIcESaIcEEESaIS6_EE, symObjAddr: 0x560, symBinAddr: 0x100003CBC, symSize: 0x28 }
  - { offset: 0x18C1F, size: 0x8, addend: 0x0, symName: __ZN4Calc13get_revpolishB5cxx11Ev, symObjAddr: 0x52C, symBinAddr: 0x100003C88, symSize: 0x34 }
  - { offset: 0x18C6D, size: 0x8, addend: 0x0, symName: __ZN4CalcD1Ev, symObjAddr: 0x4E8, symBinAddr: 0x100003C44, symSize: 0x44 }
  - { offset: 0x18C96, size: 0x8, addend: 0x0, symName: __ZN4CalcD2Ev, symObjAddr: 0x4A4, symBinAddr: 0x100003C00, symSize: 0x44 }
  - { offset: 0x18CD7, size: 0x8, addend: 0x0, symName: __ZN4CalcC1Ev, symObjAddr: 0x3F0, symBinAddr: 0x100003B4C, symSize: 0xB4 }
  - { offset: 0x18D00, size: 0x8, addend: 0x0, symName: __ZN4CalcC2Ev, symObjAddr: 0x33C, symBinAddr: 0x100003A98, symSize: 0xB4 }
  - { offset: 0x18D4A, size: 0x8, addend: 0x0, symName: __ZNSt5queueINSt7__cxx1112basic_stringIcSt11char_traitsIcESaIcEEESt5dequeIS5_SaIS5_EEED1Ev, symObjAddr: 0x31C, symBinAddr: 0x100003A78, symSize: 0x20 }
  - { offset: 0x18D94, size: 0x8, addend: 0x0, symName: __ZNSt5stackIdSt5dequeIdSaIdEEED1Ev, symObjAddr: 0x2FC, symBinAddr: 0x100003A58, symSize: 0x20 }
  - { offset: 0x18DB4, size: 0x8, addend: 0x0, symName: __ZSt16__deque_buf_sizem, symObjAddr: 0x260, symBinAddr: 0x100003A28, symSize: 0x30 }
  - { offset: 0x18DDB, size: 0x8, addend: 0x0, symName: __ZNSt7__cxx114stoiERKNS_12basic_stringIcSt11char_traitsIcESaIcEEEPmi, symObjAddr: 0x21C, symBinAddr: 0x1000039E4, symSize: 0x44 }
  - { offset: 0x18E23, size: 0x8, addend: 0x0, symName: __ZNSt11char_traitsIcE6lengthEPKc, symObjAddr: 0x1E0, symBinAddr: 0x1000039A8, symSize: 0x3C }
  - { offset: 0x18E65, size: 0x8, addend: 0x0, symName: __ZNSt11char_traitsIcE7compareEPKcS2_m, symObjAddr: 0xF0, symBinAddr: 0x1000038B8, symSize: 0xF0 }
  - { offset: 0x18EEB, size: 0x8, addend: 0x0, symName: __ZNSt11char_traitsIcE2ltERKcS2_, symObjAddr: 0xB8, symBinAddr: 0x100003880, symSize: 0x38 }
  - { offset: 0x18F2F, size: 0x8, addend: 0x0, symName: __Z9__isctypeim, symObjAddr: 0x0, symBinAddr: 0x1000037F8, symSize: 0x68 }
  - { offset: 0x1FD27, size: 0x8, addend: 0x0, symName: __ZStL8__ioinit, symObjAddr: 0x3E13B, symBinAddr: 0x100014002, symSize: 0x0 }
  - { offset: 0x20140, size: 0x8, addend: 0x0, symName: __ZNSt11__copy_moveILb0ELb0ESt26random_access_iterator_tagE12__assign_oneIPNSt7__cxx1112basic_stringIcSt11char_traitsIcESaIcEEES9_EEvPT_PT0_, symObjAddr: 0x3BC0, symBinAddr: 0x100009870, symSize: 0x28 }
  - { offset: 0x2018A, size: 0x8, addend: 0x0, symName: __ZNSt20__copy_move_backwardILb0ELb1ESt26random_access_iterator_tagE13__copy_move_bIPNSt7__cxx1112basic_stringIcSt11char_traitsIcESaIcEEES9_EEPT0_PT_SD_SB_, symObjAddr: 0x3B14, symBinAddr: 0x1000097C4, symSize: 0xAC }
  - { offset: 0x201F5, size: 0x8, addend: 0x0, symName: __ZNSt11__copy_moveILb0ELb1ESt26random_access_iterator_tagE8__copy_mIPNSt7__cxx1112basic_stringIcSt11char_traitsIcESaIcEEES9_EEPT0_PT_SD_SB_, symObjAddr: 0x3A84, symBinAddr: 0x100009734, symSize: 0x90 }
  - { offset: 0x20260, size: 0x8, addend: 0x0, symName: __ZSt23__copy_move_backward_a2ILb0EPPNSt7__cxx1112basic_stringIcSt11char_traitsIcESaIcEEES7_ET1_T0_S9_S8_, symObjAddr: 0x3A58, symBinAddr: 0x100009708, symSize: 0x2C }
  - { offset: 0x202C4, size: 0x8, addend: 0x0, symName: __ZSt14__copy_move_a2ILb0EPPNSt7__cxx1112basic_stringIcSt11char_traitsIcESaIcEEES7_ET1_T0_S9_S8_, symObjAddr: 0x3A2C, symBinAddr: 0x1000096DC, symSize: 0x2C }
  - { offset: 0x20328, size: 0x8, addend: 0x0, symName: __ZSt23__copy_move_backward_a1ILb0EPPNSt7__cxx1112basic_stringIcSt11char_traitsIcESaIcEEES7_ET1_T0_S9_S8_, symObjAddr: 0x3A00, symBinAddr: 0x1000096B0, symSize: 0x2C }
  - { offset: 0x2038C, size: 0x8, addend: 0x0, symName: __ZSt12__niter_wrapIPPNSt7__cxx1112basic_stringIcSt11char_traitsIcESaIcEEEET_RKS8_S8_, symObjAddr: 0x39E8, symBinAddr: 0x100009698, symSize: 0x18 }
  - { offset: 0x203C5, size: 0x8, addend: 0x0, symName: __ZSt14__copy_move_a1ILb0EPPNSt7__cxx1112basic_stringIcSt11char_traitsIcESaIcEEES7_ET1_T0_S9_S8_, symObjAddr: 0x39BC, symBinAddr: 0x10000966C, symSize: 0x2C }
  - { offset: 0x20429, size: 0x8, addend: 0x0, symName: __ZSt12__niter_baseIPPNSt7__cxx1112basic_stringIcSt11char_traitsIcESaIcEEEET_S8_, symObjAddr: 0x39A8, symBinAddr: 0x100009658, symSize: 0x14 }
  - { offset: 0x2045A, size: 0x8, addend: 0x0, symName: __ZSt22__copy_move_backward_aILb0EPPNSt7__cxx1112basic_stringIcSt11char_traitsIcESaIcEEES7_ET1_T0_S9_S8_, symObjAddr: 0x3934, symBinAddr: 0x1000095F8, symSize: 0x60 }
  - { offset: 0x204BE, size: 0x8, addend: 0x0, symName: __ZSt13__copy_move_aILb0EPPNSt7__cxx1112basic_stringIcSt11char_traitsIcESaIcEEES7_ET1_T0_S9_S8_, symObjAddr: 0x38D4, symBinAddr: 0x100009598, symSize: 0x60 }
  - { offset: 0x20522, size: 0x8, addend: 0x0, symName: __ZSt12__miter_baseIPPNSt7__cxx1112basic_stringIcSt11char_traitsIcESaIcEEEET_S8_, symObjAddr: 0x38C0, symBinAddr: 0x100009584, symSize: 0x14 }
  - { offset: 0x20567, size: 0x8, addend: 0x0, symName: __ZSt13copy_backwardIPPNSt7__cxx1112basic_stringIcSt11char_traitsIcESaIcEEES7_ET0_T_S9_S8_, symObjAddr: 0x3778, symBinAddr: 0x10000953C, symSize: 0x48 }
  - { offset: 0x205C1, size: 0x8, addend: 0x0, symName: __ZSt4copyIPPNSt7__cxx1112basic_stringIcSt11char_traitsIcESaIcEEES7_ET0_T_S9_S8_, symObjAddr: 0x3730, symBinAddr: 0x1000094F4, symSize: 0x48 }
  - { offset: 0x2061B, size: 0x8, addend: 0x0, symName: __ZSt19__relocate_object_aINSt7__cxx1112basic_stringIcSt11char_traitsIcESaIcEEES5_SaIS5_EEvPT_PT0_RT1_, symObjAddr: 0x3660, symBinAddr: 0x100009424, symSize: 0xD0 }
  - { offset: 0x20759, size: 0x8, addend: 0x0, symName: __ZNSt5dequeINSt7__cxx1112basic_stringIcSt11char_traitsIcESaIcEEESaIS5_EE17_M_reallocate_mapEmb, symObjAddr: 0x32C0, symBinAddr: 0x1000091E0, symSize: 0x244 }
  - { offset: 0x20806, size: 0x8, addend: 0x0, symName: __ZNSt5dequeINSt7__cxx1112basic_stringIcSt11char_traitsIcESaIcEEESaIS5_EE11_S_max_sizeERKS6_, symObjAddr: 0x326C, symBinAddr: 0x10000918C, symSize: 0x54 }
  - { offset: 0x208BD, size: 0x8, addend: 0x0, symName: __ZStmiRKSt15_Deque_iteratorINSt7__cxx1112basic_stringIcSt11char_traitsIcESaIcEEERS5_PS5_ESA_, symObjAddr: 0x31D8, symBinAddr: 0x1000090F8, symSize: 0x94 }
  - { offset: 0x208F5, size: 0x8, addend: 0x0, symName: __ZSt14__relocate_a_1IPNSt7__cxx1112basic_stringIcSt11char_traitsIcESaIcEEES6_SaIS5_EET0_T_S9_S8_RT1_, symObjAddr: 0x3154, symBinAddr: 0x100009074, symSize: 0x84 }
  - { offset: 0x2098D, size: 0x8, addend: 0x0, symName: __ZNSt6vectorINSt7__cxx1112basic_stringIcSt11char_traitsIcESaIcEEESaIS5_EE11_S_max_sizeERKS6_, symObjAddr: 0x3070, symBinAddr: 0x100009020, symSize: 0x54 }
  - { offset: 0x20A42, size: 0x8, addend: 0x0, symName: __ZNK9__gnu_cxx17__normal_iteratorIPNSt7__cxx1112basic_stringIcSt11char_traitsIcESaIcEEESt6vectorIS6_SaIS6_EEEmiEl, symObjAddr: 0x2F10, symBinAddr: 0x100008FDC, symSize: 0x44 }
  - { offset: 0x20AB9, size: 0x8, addend: 0x0, symName: __ZNSt5dequeINSt7__cxx1112basic_stringIcSt11char_traitsIcESaIcEEESaIS5_EE22_M_reserve_map_at_backEm, symObjAddr: 0x2E6C, symBinAddr: 0x100008F7C, symSize: 0x60 }
  - { offset: 0x20AF1, size: 0x8, addend: 0x0, symName: __ZNKSt5dequeINSt7__cxx1112basic_stringIcSt11char_traitsIcESaIcEEESaIS5_EE8max_sizeEv, symObjAddr: 0x2E4C, symBinAddr: 0x100008F5C, symSize: 0x20 }
  - { offset: 0x20B19, size: 0x8, addend: 0x0, symName: __ZNKSt5dequeINSt7__cxx1112basic_stringIcSt11char_traitsIcESaIcEEESaIS5_EE4sizeEv, symObjAddr: 0x2E1C, symBinAddr: 0x100008F2C, symSize: 0x30 }
  - { offset: 0x20B3D, size: 0x8, addend: 0x0, symName: __ZSt12__relocate_aIPNSt7__cxx1112basic_stringIcSt11char_traitsIcESaIcEEES6_SaIS5_EET0_T_S9_S8_RT1_, symObjAddr: 0x2DC0, symBinAddr: 0x100008ED0, symSize: 0x5C }
  - { offset: 0x20BB4, size: 0x8, addend: 0x0, symName: __ZNKSt6vectorINSt7__cxx1112basic_stringIcSt11char_traitsIcESaIcEEESaIS5_EE8max_sizeEv, symObjAddr: 0x2D64, symBinAddr: 0x100008EB0, symSize: 0x20 }
  - { offset: 0x20C0C, size: 0x8, addend: 0x0, symName: __ZNSt6vectorINSt7__cxx1112basic_stringIcSt11char_traitsIcESaIcEEESaIS5_EE4backEv, symObjAddr: 0x2910, symBinAddr: 0x100008E78, symSize: 0x38 }
  - { offset: 0x20C34, size: 0x8, addend: 0x0, symName: __ZNSt6vectorINSt7__cxx1112basic_stringIcSt11char_traitsIcESaIcEEESaIS5_EE17_M_realloc_appendIJS5_EEEvDpOT_, symObjAddr: 0x2750, symBinAddr: 0x100008CB8, symSize: 0x1C0 }
  - { offset: 0x20DB3, size: 0x8, addend: 0x0, symName: __ZZNSt6vectorINSt7__cxx1112basic_stringIcSt11char_traitsIcESaIcEEESaIS5_EE17_M_realloc_appendIJS5_EEEvDpOT_EN6_GuardC1EPS5_mRS6_, symObjAddr: 0x26AC, symBinAddr: 0x100008C14, symSize: 0x44 }
  - { offset: 0x20DF4, size: 0x8, addend: 0x0, symName: __ZZNSt6vectorINSt7__cxx1112basic_stringIcSt11char_traitsIcESaIcEEESaIS5_EE17_M_realloc_appendIJS5_EEEvDpOT_EN6_GuardD1Ev, symObjAddr: 0x26F0, symBinAddr: 0x100008C58, symSize: 0x60 }
  - { offset: 0x20F22, size: 0x8, addend: 0x0, symName: __ZSt7forwardINSt7__cxx1112basic_stringIcSt11char_traitsIcESaIcEEEEOT_RNSt16remove_referenceIS6_E4typeE, symObjAddr: 0x2698, symBinAddr: 0x100008C00, symSize: 0x14 }
  - { offset: 0x20F80, size: 0x8, addend: 0x0, symName: __ZNSt5dequeINSt7__cxx1112basic_stringIcSt11char_traitsIcESaIcEEESaIS5_EE15_M_pop_back_auxEv, symObjAddr: 0x25F8, symBinAddr: 0x100008B60, symSize: 0xA0 }
  - { offset: 0x20FFE, size: 0x8, addend: 0x0, symName: __ZNKSt15_Deque_iteratorINSt7__cxx1112basic_stringIcSt11char_traitsIcESaIcEEERS5_PS5_EdeEv, symObjAddr: 0x25E0, symBinAddr: 0x100008B48, symSize: 0x18 }
  - { offset: 0x21026, size: 0x8, addend: 0x0, symName: __ZNSt15_Deque_iteratorINSt7__cxx1112basic_stringIcSt11char_traitsIcESaIcEEERS5_PS5_EmmEv, symObjAddr: 0x2574, symBinAddr: 0x100008ADC, symSize: 0x6C }
  - { offset: 0x2104A, size: 0x8, addend: 0x0, symName: __ZSteqRKSt15_Deque_iteratorINSt7__cxx1112basic_stringIcSt11char_traitsIcESaIcEEERS5_PS5_ESA_, symObjAddr: 0x2544, symBinAddr: 0x100008AAC, symSize: 0x30 }
  - { offset: 0x21086, size: 0x8, addend: 0x0, symName: __ZNSt5dequeINSt7__cxx1112basic_stringIcSt11char_traitsIcESaIcEEESaIS5_EE16_M_push_back_auxIJRKS5_EEEvDpOT_, symObjAddr: 0x23BC, symBinAddr: 0x100008924, symSize: 0x188 }
  - { offset: 0x21122, size: 0x8, addend: 0x0, symName: __ZNSt6vectorINSt7__cxx1112basic_stringIcSt11char_traitsIcESaIcEEESaIS5_EE11_S_relocateEPS5_S8_S8_RS6_, symObjAddr: 0x2388, symBinAddr: 0x1000088F0, symSize: 0x34 }
  - { offset: 0x2117A, size: 0x8, addend: 0x0, symName: __ZSt12__to_addressINSt7__cxx1112basic_stringIcSt11char_traitsIcESaIcEEEEPT_S7_, symObjAddr: 0x2374, symBinAddr: 0x1000088DC, symSize: 0x14 }
  - { offset: 0x211B0, size: 0x8, addend: 0x0, symName: __ZN9__gnu_cxxmiIPNSt7__cxx1112basic_stringIcSt11char_traitsIcESaIcEEESt6vectorIS6_SaIS6_EEEENS_17__normal_iteratorIT_T0_E15difference_typeERKSE_SH_, symObjAddr: 0x22E4, symBinAddr: 0x10000889C, symSize: 0x40 }
  - { offset: 0x211FE, size: 0x8, addend: 0x0, symName: __ZNKSt6vectorINSt7__cxx1112basic_stringIcSt11char_traitsIcESaIcEEESaIS5_EE12_M_check_lenEmPKc, symObjAddr: 0x21C8, symBinAddr: 0x1000087CC, symSize: 0xD0 }
  - { offset: 0x212F3, size: 0x8, addend: 0x0, symName: __ZNSt6vectorINSt7__cxx1112basic_stringIcSt11char_traitsIcESaIcEEESaIS5_EE12emplace_backIJS5_EEERS5_DpOT_, symObjAddr: 0x1BA0, symBinAddr: 0x1000086F0, symSize: 0xDC }
  - { offset: 0x213C4, size: 0x8, addend: 0x0, symName: __ZNSt5dequeINSt7__cxx1112basic_stringIcSt11char_traitsIcESaIcEEESaIS5_EE8pop_backEv, symObjAddr: 0x1B14, symBinAddr: 0x100008664, symSize: 0x8C }
  - { offset: 0x21442, size: 0x8, addend: 0x0, symName: __ZNSt5dequeINSt7__cxx1112basic_stringIcSt11char_traitsIcESaIcEEESaIS5_EE4backEv, symObjAddr: 0x1AE0, symBinAddr: 0x100008630, symSize: 0x34 }
  - { offset: 0x2147B, size: 0x8, addend: 0x0, symName: __ZNKSt5dequeINSt7__cxx1112basic_stringIcSt11char_traitsIcESaIcEEESaIS5_EE5emptyEv, symObjAddr: 0x1AB0, symBinAddr: 0x100008600, symSize: 0x30 }
  - { offset: 0x214A3, size: 0x8, addend: 0x0, symName: __ZNSt5dequeINSt7__cxx1112basic_stringIcSt11char_traitsIcESaIcEEESaIS5_EE9push_backERKS5_, symObjAddr: 0x19B0, symBinAddr: 0x100008500, symSize: 0x100 }
  - { offset: 0x21539, size: 0x8, addend: 0x0, symName: __ZNSt6vectorINSt7__cxx1112basic_stringIcSt11char_traitsIcESaIcEEESaIS5_EE17_M_realloc_appendIJRKS5_EEEvDpOT_, symObjAddr: 0x17B4, symBinAddr: 0x100008304, symSize: 0x1FC }
  - { offset: 0x216B8, size: 0x8, addend: 0x0, symName: __ZZNSt6vectorINSt7__cxx1112basic_stringIcSt11char_traitsIcESaIcEEESaIS5_EE17_M_realloc_appendIJRKS5_EEEvDpOT_EN6_GuardC1EPS5_mRS6_, symObjAddr: 0x1710, symBinAddr: 0x100008260, symSize: 0x44 }
  - { offset: 0x216F9, size: 0x8, addend: 0x0, symName: __ZZNSt6vectorINSt7__cxx1112basic_stringIcSt11char_traitsIcESaIcEEESaIS5_EE17_M_realloc_appendIJRKS5_EEEvDpOT_EN6_GuardD1Ev, symObjAddr: 0x1754, symBinAddr: 0x1000082A4, symSize: 0x60 }
  - { offset: 0x21823, size: 0x8, addend: 0x0, symName: __ZSt4moveIRNSt7__cxx1112basic_stringIcSt11char_traitsIcESaIcEEEEONSt16remove_referenceIT_E4typeEOS8_, symObjAddr: 0x1498, symBinAddr: 0x10000824C, symSize: 0x14 }
  - { offset: 0x21857, size: 0x8, addend: 0x0, symName: __ZNSt7__cxx1112basic_stringIcSt11char_traitsIcESaIcEE12_M_constructIPKcEEvT_S8_St20forward_iterator_tag, symObjAddr: 0x1398, symBinAddr: 0x10000814C, symSize: 0x100 }
  - { offset: 0x21957, size: 0x8, addend: 0x0, symName: __ZZNSt7__cxx1112basic_stringIcSt11char_traitsIcESaIcEE12_M_constructIPKcEEvT_S8_St20forward_iterator_tagEN6_GuardC1EPS4_, symObjAddr: 0x1340, symBinAddr: 0x1000080F4, symSize: 0x24 }
  - { offset: 0x21988, size: 0x8, addend: 0x0, symName: __ZZNSt7__cxx1112basic_stringIcSt11char_traitsIcESaIcEE12_M_constructIPKcEEvT_S8_St20forward_iterator_tagEN6_GuardD1Ev, symObjAddr: 0x1364, symBinAddr: 0x100008118, symSize: 0x34 }
  - { offset: 0x21A79, size: 0x8, addend: 0x0, symName: __ZNSt15__new_allocatorIcED2Ev, symObjAddr: 0x132C, symBinAddr: 0x1000080E0, symSize: 0x14 }
  - { offset: 0x21ADB, size: 0x8, addend: 0x0, symName: __ZNSt6vectorINSt7__cxx1112basic_stringIcSt11char_traitsIcESaIcEEESaIS5_EE9push_backEOS5_, symObjAddr: 0x11B8, symBinAddr: 0x1000080B0, symSize: 0x30 }
  - { offset: 0x21B58, size: 0x8, addend: 0x0, symName: __ZNSt7__cxx1112basic_stringIcSt11char_traitsIcESaIcEEC1IS3_EEPKcRKS3_, symObjAddr: 0x111C, symBinAddr: 0x100008014, symSize: 0x9C }
  - { offset: 0x21BB9, size: 0x8, addend: 0x0, symName: __ZNSt6vectorINSt7__cxx1112basic_stringIcSt11char_traitsIcESaIcEEESaIS5_EE8pop_backEv, symObjAddr: 0x10BC, symBinAddr: 0x100007FB4, symSize: 0x60 }
  - { offset: 0x21C37, size: 0x8, addend: 0x0, symName: __ZNSt5stackINSt7__cxx1112basic_stringIcSt11char_traitsIcESaIcEEESt5dequeIS5_SaIS5_EEE3popEv, symObjAddr: 0x1074, symBinAddr: 0x100007F94, symSize: 0x20 }
  - { offset: 0x21C5B, size: 0x8, addend: 0x0, symName: __ZStneIcSt11char_traitsIcESaIcEEbRKNSt7__cxx1112basic_stringIT_T0_T1_EEPKS5_, symObjAddr: 0x1048, symBinAddr: 0x100007F68, symSize: 0x2C }
  - { offset: 0x21CB2, size: 0x8, addend: 0x0, symName: __ZNSt5stackINSt7__cxx1112basic_stringIcSt11char_traitsIcESaIcEEESt5dequeIS5_SaIS5_EEE3topEv, symObjAddr: 0x102C, symBinAddr: 0x100007F4C, symSize: 0x1C }
  - { offset: 0x21CDA, size: 0x8, addend: 0x0, symName: __ZNKSt5stackINSt7__cxx1112basic_stringIcSt11char_traitsIcESaIcEEESt5dequeIS5_SaIS5_EEE5emptyEv, symObjAddr: 0x1010, symBinAddr: 0x100007F30, symSize: 0x1C }
  - { offset: 0x21D02, size: 0x8, addend: 0x0, symName: __ZNSt5stackINSt7__cxx1112basic_stringIcSt11char_traitsIcESaIcEEESt5dequeIS5_SaIS5_EEE4pushERKS5_, symObjAddr: 0xFE8, symBinAddr: 0x100007F08, symSize: 0x28 }
  - { offset: 0x21D3A, size: 0x8, addend: 0x0, symName: __ZNSt6vectorINSt7__cxx1112basic_stringIcSt11char_traitsIcESaIcEEESaIS5_EE9push_backERKS5_, symObjAddr: 0xE78, symBinAddr: 0x100007E0C, symSize: 0xFC }
  - { offset: 0x21DD0, size: 0x8, addend: 0x0, symName: __ZNKSt6vectorINSt7__cxx1112basic_stringIcSt11char_traitsIcESaIcEEESaIS5_EEixEm, symObjAddr: 0xE50, symBinAddr: 0x100007DE4, symSize: 0x28 }
  - { offset: 0x21E30, size: 0x8, addend: 0x0, symName: __ZNSt5stackINSt7__cxx1112basic_stringIcSt11char_traitsIcESaIcEEESt5dequeIS5_SaIS5_EEEC1IS8_vEEv, symObjAddr: 0xD84, symBinAddr: 0x100007DA8, symSize: 0x3C }
  - { offset: 0x21EBA, size: 0x8, addend: 0x0, symName: __ZNSt7__cxx1112basic_stringIcSt11char_traitsIcESaIcEE12_Alloc_hiderD1Ev, symObjAddr: 0xC54, symBinAddr: 0x100007D7C, symSize: 0x2C }
  - { offset: 0x21F03, size: 0x8, addend: 0x0, symName: __ZN14convertToInfix8PriorityERKNSt7__cxx1112basic_stringIcSt11char_traitsIcESaIcEEE, symObjAddr: 0xB30, symBinAddr: 0x100007CB0, symSize: 0xCC }
  - { offset: 0x21F3E, size: 0x8, addend: 0x0, symName: __ZN14convertToInfix10isOperatorERKNSt7__cxx1112basic_stringIcSt11char_traitsIcESaIcEEE, symObjAddr: 0xA9C, symBinAddr: 0x100007C1C, symSize: 0x94 }
  - { offset: 0x21F79, size: 0x8, addend: 0x0, symName: __ZN14convertToInfix8TryParseERKNSt7__cxx1112basic_stringIcSt11char_traitsIcESaIcEEE, symObjAddr: 0x9FC, symBinAddr: 0x100007B7C, symSize: 0xA0 }
  - { offset: 0x21FE5, size: 0x8, addend: 0x0, symName: __ZN14convertToInfix10infixToRPNERKSt6vectorINSt7__cxx1112basic_stringIcSt11char_traitsIcESaIcEEESaIS6_EE, symObjAddr: 0x428, symBinAddr: 0x1000075A8, symSize: 0x5D4 }
  - { offset: 0x2213E, size: 0x8, addend: 0x0, symName: __ZN14convertToInfixD1Ev, symObjAddr: 0x3F0, symBinAddr: 0x100007570, symSize: 0x38 }
  - { offset: 0x22167, size: 0x8, addend: 0x0, symName: __ZN14convertToInfixD2Ev, symObjAddr: 0x3B8, symBinAddr: 0x100007538, symSize: 0x38 }
  - { offset: 0x221A8, size: 0x8, addend: 0x0, symName: __ZN14convertToInfixC1Ev, symObjAddr: 0x348, symBinAddr: 0x1000074C8, symSize: 0x70 }
  - { offset: 0x221D1, size: 0x8, addend: 0x0, symName: __ZN14convertToInfixC2Ev, symObjAddr: 0x2D8, symBinAddr: 0x100007458, symSize: 0x70 }
  - { offset: 0x2221B, size: 0x8, addend: 0x0, symName: __ZNSt5stackINSt7__cxx1112basic_stringIcSt11char_traitsIcESaIcEEESt5dequeIS5_SaIS5_EEED1Ev, symObjAddr: 0x2B8, symBinAddr: 0x100007438, symSize: 0x20 }
  - { offset: 0x2745B, size: 0x8, addend: 0x0, symName: __ZStL8__ioinit, symObjAddr: 0x2C009, symBinAddr: 0x100014003, symSize: 0x0 }
  - { offset: 0x2775C, size: 0x8, addend: 0x0, symName: __ZN9Separator8addSpaceERKNSt7__cxx1112basic_stringIcSt11char_traitsIcESaIcEEE, symObjAddr: 0x460, symBinAddr: 0x100009BE8, symSize: 0x1EC }
  - { offset: 0x277ED, size: 0x8, addend: 0x0, symName: __ZN9SeparatorD1Ev, symObjAddr: 0x428, symBinAddr: 0x100009BB0, symSize: 0x38 }
  - { offset: 0x27816, size: 0x8, addend: 0x0, symName: __ZN9SeparatorD2Ev, symObjAddr: 0x3F0, symBinAddr: 0x100009B78, symSize: 0x38 }
  - { offset: 0x27857, size: 0x8, addend: 0x0, symName: __ZN9SeparatorC1Ev, symObjAddr: 0x2B8, symBinAddr: 0x100009A40, symSize: 0x138 }
  - { offset: 0x2797D, size: 0x8, addend: 0x0, symName: __ZN9SeparatorC2Ev, symObjAddr: 0x180, symBinAddr: 0x100009908, symSize: 0x138 }
  - { offset: 0x27A9A, size: 0x8, addend: 0x0, symName: __ZStorSt13_Ios_OpenmodeS_, symObjAddr: 0xF4, symBinAddr: 0x1000098E8, symSize: 0x20 }
...
